target datalayout = "e-m:e-p270:32:32-p271:32:32-p272:64:64-i64:64-i128:128-f80:128-n8:16:32:64-S128"
target triple = "x86_64-pc-linux-gnu"

%struct.PJconsts = type { ptr, ptr, ptr, ptr, ptr, ptr, ptr, ptr, ptr, ptr, ptr, ptr, i32, ptr, ptr, ptr, ptr, ptr, ptr, ptr, ptr, double, double, double, double, double, double, double, double, double, double, double, double, double, double, double, double, double, double, double, double, double, double, i32, i32, i32, i32, i32, i32, i32, i32, i32, i32, i32, ptr, ptr, ptr, ptr, ptr, ptr, double, double, double, double, double, double, double, double, double, double, double, i32, [7 x double], i32, ptr, ptr, double, double, i32, [4 x i8], %"class.std::shared_ptr", i8, double, i8, %"class.std::__cxx11::basic_string", %"class.std::__cxx11::basic_string", %"class.std::__cxx11::basic_string", i8, %"class.std::vector", i32, %"class.std::vector.3", i32, i8, i8, i8, ptr }
%"class.std::shared_ptr" = type { %"class.std::__shared_ptr" }
%"class.std::__shared_ptr" = type { ptr, %"class.std::__shared_count" }
%"class.std::__shared_count" = type { ptr }
%"class.std::__cxx11::basic_string" = type { %"struct.std::__cxx11::basic_string<char>::_Alloc_hider", i64, %union.anon }
%"struct.std::__cxx11::basic_string<char>::_Alloc_hider" = type { ptr }
%union.anon = type { i64, [8 x i8] }
%"class.std::vector" = type { %"struct.std::_Vector_base" }
%"struct.std::_Vector_base" = type { %"struct.std::_Vector_base<osgeo::proj::operation::GridDescription, std::allocator<osgeo::proj::operation::GridDescription>>::_Vector_impl" }
%"struct.std::_Vector_base<osgeo::proj::operation::GridDescription, std::allocator<osgeo::proj::operation::GridDescription>>::_Vector_impl" = type { %"struct.std::_Vector_base<osgeo::proj::operation::GridDescription, std::allocator<osgeo::proj::operation::GridDescription>>::_Vector_impl_data" }
%"struct.std::_Vector_base<osgeo::proj::operation::GridDescription, std::allocator<osgeo::proj::operation::GridDescription>>::_Vector_impl_data" = type { ptr, ptr, ptr }
%"class.std::vector.3" = type { %"struct.std::_Vector_base.4" }
%"struct.std::_Vector_base.4" = type { %"struct.std::_Vector_base<PJCoordOperation, std::allocator<PJCoordOperation>>::_Vector_impl" }
%"struct.std::_Vector_base<PJCoordOperation, std::allocator<PJCoordOperation>>::_Vector_impl" = type { %"struct.std::_Vector_base<PJCoordOperation, std::allocator<PJCoordOperation>>::_Vector_impl_data" }
%"struct.std::_Vector_base<PJCoordOperation, std::allocator<PJCoordOperation>>::_Vector_impl_data" = type { ptr, ptr, ptr }
%"struct.(anonymous namespace)::pj_eqearth" = type { double, double, ptr }
%struct.PJ_XY = type { double, double }
%struct.PJ_LP = type { double, double }

; Function Attrs: mustprogress uwtable
define internal { double, double } @_ZL17eqearth_e_inverse5PJ_XYP8PJconsts(double %0, double %1, ptr noundef %2) #0 {
  %4 = alloca %struct.PJ_LP, align 8
  %5 = alloca %struct.PJ_XY, align 8
  %6 = alloca ptr, align 8
  %7 = alloca ptr, align 8
  %8 = alloca double, align 8
  %9 = alloca double, align 8
  %10 = alloca double, align 8
  %11 = alloca i32, align 4
  %12 = alloca double, align 8
  %13 = alloca double, align 8
  %14 = alloca double, align 8
  %15 = alloca i32, align 4
  %16 = getelementptr inbounds nuw { double, double }, ptr %5, i32 0, i32 0
  store double %0, ptr %16, align 8
  %17 = getelementptr inbounds nuw { double, double }, ptr %5, i32 0, i32 1
  store double %1, ptr %17, align 8
  store ptr %2, ptr %6, align 8, !tbaa !3
  call void @llvm.memset.p0.i64(ptr align 8 %4, i8 0, i64 16, i1 false)
  call void @llvm.lifetime.start.p0(i64 8, ptr %7) #7
  %18 = load ptr, ptr %6, align 8, !tbaa !3
  %19 = getelementptr inbounds nuw %struct.PJconsts, ptr %18, i32 0, i32 11
  %20 = load ptr, ptr %19, align 8, !tbaa !43
  store ptr %20, ptr %7, align 8, !tbaa !41
  call void @llvm.lifetime.start.p0(i64 8, ptr %8) #7
  call void @llvm.lifetime.start.p0(i64 8, ptr %9) #7
  call void @llvm.lifetime.start.p0(i64 8, ptr %10) #7
  call void @llvm.lifetime.start.p0(i64 4, ptr %11) #7
  %21 = load ptr, ptr %7, align 8, !tbaa !41
  %22 = getelementptr inbounds nuw %"struct.(anonymous namespace)::pj_eqearth", ptr %21, i32 0, i32 1
  %23 = load double, ptr %22, align 8, !tbaa !47
  %24 = getelementptr inbounds nuw %struct.PJ_XY, ptr %5, i32 0, i32 0
  %25 = load double, ptr %24, align 8, !tbaa !60
  %26 = fdiv double %25, %23
  store double %26, ptr %24, align 8, !tbaa !60
  %27 = load ptr, ptr %7, align 8, !tbaa !41
  %28 = getelementptr inbounds nuw %"struct.(anonymous namespace)::pj_eqearth", ptr %27, i32 0, i32 1
  %29 = load double, ptr %28, align 8, !tbaa !47
  %30 = getelementptr inbounds nuw %struct.PJ_XY, ptr %5, i32 0, i32 1
  %31 = load double, ptr %30, align 8, !tbaa !62
  %32 = fdiv double %31, %29
  store double %32, ptr %30, align 8, !tbaa !62
  %33 = getelementptr inbounds nuw %struct.PJ_XY, ptr %5, i32 0, i32 1
  %34 = load double, ptr %33, align 8, !tbaa !62
  %35 = fcmp ogt double %34, 0x3FF513EAF8F8CA2B
  br i1 %35, label %36, label %38

36:                                               ; preds = %3
  %37 = getelementptr inbounds nuw %struct.PJ_XY, ptr %5, i32 0, i32 1
  store double 0x3FF513EAF8F8CA2B, ptr %37, align 8, !tbaa !62
  br label %45

38:                                               ; preds = %3
  %39 = getelementptr inbounds nuw %struct.PJ_XY, ptr %5, i32 0, i32 1
  %40 = load double, ptr %39, align 8, !tbaa !62
  %41 = fcmp olt double %40, 0xBFF513EAF8F8CA2B
  br i1 %41, label %42, label %44

42:                                               ; preds = %38
  %43 = getelementptr inbounds nuw %struct.PJ_XY, ptr %5, i32 0, i32 1
  store double 0xBFF513EAF8F8CA2B, ptr %43, align 8, !tbaa !62
  br label %44

44:                                               ; preds = %42, %38
  br label %45

45:                                               ; preds = %44, %36
  %46 = getelementptr inbounds nuw %struct.PJ_XY, ptr %5, i32 0, i32 1
  %47 = load double, ptr %46, align 8, !tbaa !62
  store double %47, ptr %8, align 8, !tbaa !58
  store i32 12, ptr %11, align 4, !tbaa !55
  br label %48

48:                                               ; preds = %91, %45
  %49 = load i32, ptr %11, align 4, !tbaa !55
  %50 = icmp ne i32 %49, 0
  br i1 %50, label %51, label %94

51:                                               ; preds = %48
  call void @llvm.lifetime.start.p0(i64 8, ptr %12) #7
  call void @llvm.lifetime.start.p0(i64 8, ptr %13) #7
  call void @llvm.lifetime.start.p0(i64 8, ptr %14) #7
  %52 = load double, ptr %8, align 8, !tbaa !58
  %53 = load double, ptr %8, align 8, !tbaa !58
  %54 = fmul double %52, %53
  store double %54, ptr %9, align 8, !tbaa !58
  %55 = load double, ptr %9, align 8, !tbaa !58
  %56 = load double, ptr %9, align 8, !tbaa !58
  %57 = fmul double %55, %56
  %58 = load double, ptr %9, align 8, !tbaa !58
  %59 = fmul double %57, %58
  store double %59, ptr %10, align 8, !tbaa !58
  %60 = load double, ptr %8, align 8, !tbaa !58
  %61 = load double, ptr %9, align 8, !tbaa !58
  %62 = call double @llvm.fmuladd.f64(double 0xBFB4C35CE1826677, double %61, double 0x3FF571B8AA00192A)
  %63 = load double, ptr %10, align 8, !tbaa !58
  %64 = load double, ptr %9, align 8, !tbaa !58
  %65 = call double @llvm.fmuladd.f64(double 3.796000e-03, double %64, double 8.930000e-04)
  %66 = call double @llvm.fmuladd.f64(double %63, double %65, double %62)
  %67 = getelementptr inbounds nuw %struct.PJ_XY, ptr %5, i32 0, i32 1
  %68 = load double, ptr %67, align 8, !tbaa !62
  %69 = fneg double %68
  %70 = call double @llvm.fmuladd.f64(double %60, double %66, double %69)
  store double %70, ptr %12, align 8, !tbaa !58
  %71 = load double, ptr %9, align 8, !tbaa !58
  %72 = call double @llvm.fmuladd.f64(double 0xBFCF250B524399B2, double %71, double 0x3FF571B8AA00192A)
  %73 = load double, ptr %10, align 8, !tbaa !58
  %74 = load double, ptr %9, align 8, !tbaa !58
  %75 = call double @llvm.fmuladd.f64(double 3.416400e-02, double %74, double 0x3F799AA60913A4F9)
  %76 = call double @llvm.fmuladd.f64(double %73, double %75, double %72)
  store double %76, ptr %13, align 8, !tbaa !58
  %77 = load double, ptr %12, align 8, !tbaa !58
  %78 = load double, ptr %13, align 8, !tbaa !58
  %79 = fdiv double %77, %78
  store double %79, ptr %14, align 8, !tbaa !58
  %80 = load double, ptr %14, align 8, !tbaa !58
  %81 = load double, ptr %8, align 8, !tbaa !58
  %82 = fsub double %81, %80
  store double %82, ptr %8, align 8, !tbaa !58
  %83 = load double, ptr %14, align 8, !tbaa !58
  %84 = call double @llvm.fabs.f64(double %83)
  %85 = fcmp olt double %84, 0x3DA5FD7FE1796495
  br i1 %85, label %86, label %87

86:                                               ; preds = %51
  store i32 2, ptr %15, align 4
  br label %88

87:                                               ; preds = %51
  store i32 0, ptr %15, align 4
  br label %88

88:                                               ; preds = %87, %86
  call void @llvm.lifetime.end.p0(i64 8, ptr %14) #7
  call void @llvm.lifetime.end.p0(i64 8, ptr %13) #7
  call void @llvm.lifetime.end.p0(i64 8, ptr %12) #7
  %89 = load i32, ptr %15, align 4
  switch i32 %89, label %148 [
    i32 0, label %90
    i32 2, label %94
  ]

90:                                               ; preds = %88
  br label %91

91:                                               ; preds = %90
  %92 = load i32, ptr %11, align 4, !tbaa !55
  %93 = add nsw i32 %92, -1
  store i32 %93, ptr %11, align 4, !tbaa !55
  br label %48, !llvm.loop !63

94:                                               ; preds = %88, %48
  %95 = load i32, ptr %11, align 4, !tbaa !55
  %96 = icmp eq i32 %95, 0
  br i1 %96, label %97, label %101

97:                                               ; preds = %94
  %98 = load ptr, ptr %6, align 8, !tbaa !3
  %99 = getelementptr inbounds nuw %struct.PJconsts, ptr %98, i32 0, i32 0
  %100 = load ptr, ptr %99, align 8, !tbaa !65
  call void @_Z22proj_context_errno_setP6pj_ctxi(ptr noundef %100, i32 noundef 2050)
  store i32 1, ptr %15, align 4
  br label %146

101:                                              ; preds = %94
  %102 = load double, ptr %8, align 8, !tbaa !58
  %103 = load double, ptr %8, align 8, !tbaa !58
  %104 = fmul double %102, %103
  store double %104, ptr %9, align 8, !tbaa !58
  %105 = load double, ptr %9, align 8, !tbaa !58
  %106 = load double, ptr %9, align 8, !tbaa !58
  %107 = fmul double %105, %106
  %108 = load double, ptr %9, align 8, !tbaa !58
  %109 = fmul double %107, %108
  store double %109, ptr %10, align 8, !tbaa !58
  %110 = call double @sqrt(double noundef 3.000000e+00) #7, !tbaa !55
  %111 = fdiv double %110, 2.000000e+00
  %112 = getelementptr inbounds nuw %struct.PJ_XY, ptr %5, i32 0, i32 0
  %113 = load double, ptr %112, align 8, !tbaa !60
  %114 = fmul double %111, %113
  %115 = load double, ptr %9, align 8, !tbaa !58
  %116 = call double @llvm.fmuladd.f64(double 0xBFCF250B524399B2, double %115, double 0x3FF571B8AA00192A)
  %117 = load double, ptr %10, align 8, !tbaa !58
  %118 = load double, ptr %9, align 8, !tbaa !58
  %119 = call double @llvm.fmuladd.f64(double 3.416400e-02, double %118, double 0x3F799AA60913A4F9)
  %120 = call double @llvm.fmuladd.f64(double %117, double %119, double %116)
  %121 = fmul double %114, %120
  %122 = load double, ptr %8, align 8, !tbaa !58
  %123 = call double @cos(double noundef %122) #7, !tbaa !55
  %124 = fdiv double %121, %123
  %125 = getelementptr inbounds nuw %struct.PJ_LP, ptr %4, i32 0, i32 0
  store double %124, ptr %125, align 8, !tbaa !59
  %126 = load double, ptr %8, align 8, !tbaa !58
  %127 = call double @sin(double noundef %126) #7, !tbaa !55
  %128 = call double @sqrt(double noundef 3.000000e+00) #7, !tbaa !55
  %129 = fdiv double %128, 2.000000e+00
  %130 = fdiv double %127, %129
  %131 = call double @asin(double noundef %130) #7, !tbaa !55
  %132 = getelementptr inbounds nuw %struct.PJ_LP, ptr %4, i32 0, i32 1
  store double %131, ptr %132, align 8, !tbaa !56
  %133 = load ptr, ptr %6, align 8, !tbaa !3
  %134 = getelementptr inbounds nuw %struct.PJconsts, ptr %133, i32 0, i32 27
  %135 = load double, ptr %134, align 8, !tbaa !50
  %136 = fcmp une double %135, 0.000000e+00
  br i1 %136, label %137, label %145

137:                                              ; preds = %101
  %138 = getelementptr inbounds nuw %struct.PJ_LP, ptr %4, i32 0, i32 1
  %139 = load double, ptr %138, align 8, !tbaa !56
  %140 = load ptr, ptr %7, align 8, !tbaa !41
  %141 = getelementptr inbounds nuw %"struct.(anonymous namespace)::pj_eqearth", ptr %140, i32 0, i32 2
  %142 = load ptr, ptr %141, align 8, !tbaa !51
  %143 = call noundef double @_Z10pj_authlatdPd(double noundef %139, ptr noundef %142)
  %144 = getelementptr inbounds nuw %struct.PJ_LP, ptr %4, i32 0, i32 1
  store double %143, ptr %144, align 8, !tbaa !56
  br label %145

145:                                              ; preds = %137, %101
  store i32 1, ptr %15, align 4
  br label %146

146:                                              ; preds = %145, %97
  call void @llvm.lifetime.end.p0(i64 4, ptr %11) #7
  call void @llvm.lifetime.end.p0(i64 8, ptr %10) #7
  call void @llvm.lifetime.end.p0(i64 8, ptr %9) #7
  call void @llvm.lifetime.end.p0(i64 8, ptr %8) #7
  call void @llvm.lifetime.end.p0(i64 8, ptr %7) #7
  %147 = load { double, double }, ptr %4, align 8
  ret { double, double } %147

148:                                              ; preds = %88
  unreachable
}