; Function Attrs: mustprogress uwtable
define internal { double, double } @_ZL17eqearth_e_inverse5PJ_XYP8PJconsts(double %0, double %1, ptr noundef readonly captures(none) %2) #0 {
  %4 = getelementptr inbounds nuw i8, ptr %2, i64 88
  %5 = load ptr, ptr %4, align 8, !tbaa !40
  %6 = getelementptr inbounds nuw i8, ptr %5, i64 8
  %7 = load double, ptr %6, align 8, !tbaa !44
  %8 = fdiv double %0, %7
  %9 = fdiv double %1, %7
  %10 = fcmp ogt double %9, 0x3FF513EAF8F8CA2B
  br i1 %10, label %14, label %11

11:                                               ; preds = %3
  %12 = fcmp olt double %9, 0xBFF513EAF8F8CA2B
  br i1 %12, label %13, label %14

13:                                               ; preds = %11
  br label %14

14:                                               ; preds = %3, %11, %13
  %.sroa.4.0 = phi double [ 0xBFF513EAF8F8CA2B, %13 ], [ %9, %11 ], [ 0x3FF513EAF8F8CA2B, %3 ]
  %15 = fneg double %.sroa.4.0
  br label %18

16:                                               ; preds = %18
  %17 = add nsw i32 %.04247, -1
  %.not = icmp eq i32 %17, 0
  br i1 %.not, label %33, label %18, !llvm.loop !53

18:                                               ; preds = %14, %16
  %.04247 = phi i32 [ 12, %14 ], [ %17, %16 ]
  %.04346 = phi double [ %.sroa.4.0, %14 ], [ %30, %16 ]
  %19 = fmul double %.04346, %.04346
  %20 = fmul double %19, %19
  %21 = fmul double %19, %20
  %22 = tail call double @llvm.fmuladd.f64(double %19, double 0xBFB4C35CE1826677, double 0x3FF571B8AA00192A)
  %23 = tail call double @llvm.fmuladd.f64(double %19, double 3.796000e-03, double 8.930000e-04)
  %24 = tail call double @llvm.fmuladd.f64(double %21, double %23, double %22)
  %25 = tail call double @llvm.fmuladd.f64(double %.04346, double %24, double %15)
  %26 = tail call double @llvm.fmuladd.f64(double %19, double 0xBFCF250B524399B2, double 0x3FF571B8AA00192A)
  %27 = tail call double @llvm.fmuladd.f64(double %19, double 3.416400e-02, double 0x3F799AA60913A4F9)
  %28 = tail call double @llvm.fmuladd.f64(double %21, double %27, double %26)
  %29 = fdiv double %25, %28
  %30 = fsub double %.04346, %29
  %31 = tail call double @llvm.fabs.f64(double %29)
  %32 = fcmp olt double %31, 0x3DA5FD7FE1796495
  br i1 %32, label %35, label %16

33:                                               ; preds = %16
  %34 = load ptr, ptr %2, align 8, !tbaa !55
  tail call void @_Z22proj_context_errno_setP6pj_ctxi(ptr noundef %34, i32 noundef 2050)
  br label %56

35:                                               ; preds = %18
  %36 = fmul double %30, %30
  %37 = fmul double %36, %36
  %38 = fmul double %36, %37
  %39 = fmul double %8, 0x3FEBB67AE8584CAA
  %40 = tail call double @llvm.fmuladd.f64(double %36, double 0xBFCF250B524399B2, double 0x3FF571B8AA00192A)
  %41 = tail call double @llvm.fmuladd.f64(double %36, double 3.416400e-02, double 0x3F799AA60913A4F9)
  %42 = tail call double @llvm.fmuladd.f64(double %38, double %41, double %40)
  %43 = fmul double %39, %42
  %44 = tail call double @cos(double noundef %30) #7, !tbaa !52
  %45 = fdiv double %43, %44
  %46 = tail call double @sin(double noundef %30) #7, !tbaa !52
  %47 = fdiv double %46, 0x3FEBB67AE8584CAA
  %48 = tail call double @asin(double noundef %47) #7, !tbaa !52
  %49 = getelementptr inbounds nuw i8, ptr %2, i64 216
  %50 = load double, ptr %49, align 8, !tbaa !47
  %51 = fcmp une double %50, 0.000000e+00
  br i1 %51, label %52, label %56

52:                                               ; preds = %35
  %53 = getelementptr inbounds nuw i8, ptr %5, i64 16
  %54 = load ptr, ptr %53, align 8, !tbaa !48
  %55 = tail call noundef double @_Z10pj_authlatdPd(double noundef %48, ptr noundef %54)
  br label %56

56:                                               ; preds = %35, %52, %33
  %.sroa.3.0 = phi double [ 0.000000e+00, %33 ], [ %55, %52 ], [ %48, %35 ]
  %.sroa.041.0 = phi double [ 0.000000e+00, %33 ], [ %45, %52 ], [ %45, %35 ]
  %.fca.0.insert = insertvalue { double, double } poison, double %.sroa.041.0, 0
  %.fca.1.insert = insertvalue { double, double } %.fca.0.insert, double %.sroa.3.0, 1
  ret { double, double } %.fca.1.insert
}